; Function Attrs: nounwind uwtable
define dso_local i32 @count_core_array_set(ptr noundef readonly captures(address_is_null) %0) local_unnamed_addr #0 {
  %.not = icmp ne ptr %0, null
  %2 = load i32, ptr @node_record_count, align 4
  %3 = icmp sgt i32 %2, 0
  %or.cond = select i1 %.not, i1 %3, i1 false
  br i1 %or.cond, label %.lr.ph, label %.loopexit

.lr.ph:                                           ; preds = %1, %10
  %4 = phi i32 [ %11, %10 ], [ %2, %1 ]
  %indvars.iv = phi i64 [ %indvars.iv.next, %10 ], [ 0, %1 ]
  %.01015 = phi i32 [ %.1, %10 ], [ 0, %1 ]
  %5 = getelementptr inbounds nuw ptr, ptr %0, i64 %indvars.iv
  %6 = load ptr, ptr %5, align 8
  %.not14 = icmp eq ptr %6, null
  br i1 %.not14, label %10, label %7

7:                                                ; preds = %.lr.ph
  %8 = tail call i32 @bit_set_count(ptr noundef nonnull %6) #3
  %9 = add nsw i32 %8, %.01015
  %.pre = load i32, ptr @node_record_count, align 4
  br label %10

10:                                               ; preds = %.lr.ph, %7
  %11 = phi i32 [ %.pre, %7 ], [ %4, %.lr.ph ]
  %.1 = phi i32 [ %9, %7 ], [ %.01015, %.lr.ph ]
  %indvars.iv.next = add nuw nsw i64 %indvars.iv, 1
  %12 = sext i32 %11 to i64
  %13 = icmp slt i64 %indvars.iv.next, %12
  br i1 %13, label %.lr.ph, label %.loopexit, !llvm.loop !12

.loopexit:                                        ; preds = %10, %1
  %.011 = phi i32 [ 0, %1 ], [ %.1, %10 ]
  ret i32 %.011
}